target datalayout = "e-m:e-p270:32:32-p271:32:32-p272:64:64-i64:64-i128:128-f80:128-n8:16:32:64-S128"
target triple = "x86_64-pc-linux-gnu"

; Function Attrs: mustprogress uwtable
define void @_ZN6icu_7716SimpleDateFormat27initializeBooleanAttributesEv(ptr noundef nonnull align 8 dereferenceable(528) %0) #1 align 2 {
  %2 = alloca ptr, align 8
  %3 = alloca i32, align 4
  store ptr %0, ptr %2, align 8, !tbaa !23
  %4 = load ptr, ptr %2, align 8
  call void @llvm.lifetime.start.p0(i64 4, ptr %3) #12
  store i32 0, ptr %3, align 4, !tbaa !15
  %5 = load ptr, ptr %4, align 8, !tbaa !63
  %6 = getelementptr inbounds ptr, ptr %5, i64 27
  %7 = load ptr, ptr %6, align 8
  %8 = call noundef nonnull align 8 dereferenceable(48) ptr %7(ptr noundef nonnull align 8 dereferenceable(48) %4, i32 noundef 0, i8 noundef signext 1, ptr noundef nonnull align 4 dereferenceable(4) %3)
  %9 = load ptr, ptr %4, align 8, !tbaa !63
  %10 = getelementptr inbounds ptr, ptr %9, i64 27
  %11 = load ptr, ptr %10, align 8
  %12 = call noundef nonnull align 8 dereferenceable(48) ptr %11(ptr noundef nonnull align 8 dereferenceable(48) %4, i32 noundef 1, i8 noundef signext 1, ptr noundef nonnull align 4 dereferenceable(4) %3)
  %13 = load ptr, ptr %4, align 8, !tbaa !63
  %14 = getelementptr inbounds ptr, ptr %13, i64 27
  %15 = load ptr, ptr %14, align 8
  %16 = call noundef nonnull align 8 dereferenceable(48) ptr %15(ptr noundef nonnull align 8 dereferenceable(48) %4, i32 noundef 2, i8 noundef signext 1, ptr noundef nonnull align 4 dereferenceable(4) %3)
  %17 = load ptr, ptr %4, align 8, !tbaa !63
  %18 = getelementptr inbounds ptr, ptr %17, i64 27
  %19 = load ptr, ptr %18, align 8
  %20 = call noundef nonnull align 8 dereferenceable(48) ptr %19(ptr noundef nonnull align 8 dereferenceable(48) %4, i32 noundef 3, i8 noundef signext 1, ptr noundef nonnull align 4 dereferenceable(4) %3)
  call void @llvm.lifetime.end.p0(i64 4, ptr %3) #12
  ret void
}