; Function Attrs: mustprogress uwtable
define void @_ZN6icu_7716SimpleDateFormat27initializeBooleanAttributesEv(ptr noundef nonnull align 8 dereferenceable(528) %0) local_unnamed_addr #1 align 2 {
  %2 = alloca i32, align 4
  call void @llvm.lifetime.start.p0(i64 4, ptr nonnull %2) #23
  store i32 0, ptr %2, align 4, !tbaa !13
  %3 = load ptr, ptr %0, align 8, !tbaa !44
  %4 = getelementptr inbounds nuw i8, ptr %3, i64 216
  %5 = load ptr, ptr %4, align 8
  %6 = call noundef nonnull align 8 dereferenceable(48) ptr %5(ptr noundef nonnull align 8 dereferenceable(48) %0, i32 noundef 0, i8 noundef signext 1, ptr noundef nonnull align 4 dereferenceable(4) %2)
  %7 = load ptr, ptr %0, align 8, !tbaa !44
  %8 = getelementptr inbounds nuw i8, ptr %7, i64 216
  %9 = load ptr, ptr %8, align 8
  %10 = call noundef nonnull align 8 dereferenceable(48) ptr %9(ptr noundef nonnull align 8 dereferenceable(48) %0, i32 noundef 1, i8 noundef signext 1, ptr noundef nonnull align 4 dereferenceable(4) %2)
  %11 = load ptr, ptr %0, align 8, !tbaa !44
  %12 = getelementptr inbounds nuw i8, ptr %11, i64 216
  %13 = load ptr, ptr %12, align 8
  %14 = call noundef nonnull align 8 dereferenceable(48) ptr %13(ptr noundef nonnull align 8 dereferenceable(48) %0, i32 noundef 2, i8 noundef signext 1, ptr noundef nonnull align 4 dereferenceable(4) %2)
  %15 = load ptr, ptr %0, align 8, !tbaa !44
  %16 = getelementptr inbounds nuw i8, ptr %15, i64 216
  %17 = load ptr, ptr %16, align 8
  %18 = call noundef nonnull align 8 dereferenceable(48) ptr %17(ptr noundef nonnull align 8 dereferenceable(48) %0, i32 noundef 3, i8 noundef signext 1, ptr noundef nonnull align 4 dereferenceable(4) %2)
  call void @llvm.lifetime.end.p0(i64 4, ptr nonnull %2) #23
  ret void
}